; Function Attrs: nounwind uwtable
define void @pmix_hash_register_key(i32 noundef %0, ptr noundef %1, ptr noundef captures(address_is_null) %2) local_unnamed_addr #0 {
  %.not.i = icmp eq ptr %2, null
  %4 = select i1 %.not.i, ptr getelementptr inbounds nuw (i8, ptr @pmix_globals, i64 2928), ptr %2
  %5 = icmp eq i32 %0, -1
  %6 = getelementptr inbounds nuw i8, ptr %4, i64 120
  %7 = load ptr, ptr %6, align 8, !tbaa !56
  br i1 %5, label %8, label %14

8:                                                ; preds = %3
  %9 = getelementptr inbounds nuw i8, ptr %4, i64 128
  %10 = load i32, ptr %9, align 8, !tbaa !69
  %11 = tail call i32 @pmix_pointer_array_set_item(ptr noundef %7, i32 noundef %10, ptr noundef %1) #17
  %12 = load i32, ptr %9, align 8, !tbaa !69
  store i32 %12, ptr %1, align 8, !tbaa !30
  %13 = add i32 %12, 1
  store i32 %13, ptr %9, align 8, !tbaa !69
  br label %25

14:                                               ; preds = %3
  %15 = icmp slt i32 %0, 0
  br i1 %15, label %pmix_pointer_array_get_item.exit.thread, label %16, !prof !29

16:                                               ; preds = %14
  %17 = getelementptr inbounds nuw i8, ptr %7, i64 128
  %18 = load i32, ptr %17, align 8, !tbaa !58
  %.not.i13 = icmp sgt i32 %18, %0
  br i1 %.not.i13, label %pmix_pointer_array_get_item.exit, label %pmix_pointer_array_get_item.exit.thread, !prof !70

pmix_pointer_array_get_item.exit:                 ; preds = %16
  %19 = getelementptr inbounds nuw i8, ptr %7, i64 152
  %20 = load ptr, ptr %19, align 8, !tbaa !61
  %21 = zext nneg i32 %0 to i64
  %22 = getelementptr inbounds nuw ptr, ptr %20, i64 %21
  %23 = load ptr, ptr %22, align 8, !tbaa !62
  %.not = icmp eq ptr %23, null
  br i1 %.not, label %pmix_pointer_array_get_item.exit.thread, label %25

pmix_pointer_array_get_item.exit.thread:          ; preds = %14, %16, %pmix_pointer_array_get_item.exit
  %24 = tail call i32 @pmix_pointer_array_set_item(ptr noundef %7, i32 noundef %0, ptr noundef %1) #17
  br label %25

25:                                               ; preds = %pmix_pointer_array_get_item.exit, %pmix_pointer_array_get_item.exit.thread, %8
  ret void
}